Certificate:
    Data:
        Version: 3 (0x2)
        Serial Number: 1 (0x1)
        Signature Algorithm: sha256WithRSAEncryption
        Issuer: CN=devcert
        Validity
            Not Before: Apr 27 14:19:13 2020 GMT
            Not After : Jul 31 14:19:13 2022 GMT
        Subject: CN=localhost
        Subject Public Key Info:
            Public Key Algorithm: rsaEncryption
                RSA Public-Key: (2048 bit)
                Modulus:
                    00:b3:e9:42:5e:ca:5b:b4:5e:f1:16:69:ea:50:5f:
                    2a:e0:90:1c:c6:ff:5f:d2:a4:32:25:d1:62:1a:c6:
                    b0:e1:1e:f6:fc:22:e7:d9:12:d8:2d:e6:49:90:f3:
                    dd:ba:61:b8:be:ae:3f:cd:36:97:66:e3:2d:7b:cf:
                    50:21:4b:87:2e:e9:7c:66:96:d2:2a:80:9b:0c:37:
                    8b:c1:14:26:11:22:96:a2:d9:67:06:ac:44:86:65:
                    31:c7:07:7a:c1:81:70:d5:6b:fa:cb:0a:75:87:2e:
                    66:4a:fc:51:87:39:e3:4c:bd:7c:f1:66:52:54:fc:
                    68:99:d4:f2:59:48:14:2c:1a:34:cd:da:93:7b:e2:
                    36:d2:14:45:51:70:ad:2d:a2:f0:62:68:81:58:91:
                    ce:8c:d1:fc:83:05:74:63:7d:3a:cb:22:62:14:bc:
                    93:50:6d:9a:ec:00:e5:03:b4:e8:39:aa:6f:b8:1a:
                    48:fc:3b:2c:45:73:dc:40:89:71:d0:5e:67:05:4f:
                    0d:90:09:31:fa:8b:b5:da:bb:7e:2c:7e:16:de:36:
                    65:55:c2:29:e2:bb:f7:3f:84:24:6f:a9:9a:b2:ce:
                    e1:b7:15:29:de:1f:70:5b:22:a8:74:6b:08:dc:4f:
                    f9:8b:3b:f2:9b:2f:0d:63:46:26:8c:df:ba:7f:76:
                    7f:01
                Exponent: 65537 (0x10001)
        X509v3 extensions:
            X509v3 Basic Constraints: critical
                CA:FALSE
            X509v3 Subject Key Identifier: 
                9E:57:80:85:A9:6A:81:0B:B5:8E:E5:6E:A9:7D:53:F3:7A:7C:7F:91
            X509v3 Authority Key Identifier: 
                keyid:82:F3:31:84:9C:AE:82:67:DC:6F:42:5A:10:DD:54:E7:0F:09:02:51
                DirName:/CN=devcert
                serial:17:AB:C2:C8:A0:F2:C2:B1:1B:F3:FE:83:3C:12:16:F7:BA:52:63:19

            X509v3 Key Usage: critical
                Digital Signature, Key Encipherment
            X509v3 Extended Key Usage: 
                TLS Web Server Authentication
            X509v3 Subject Alternative Name: 
                DNS:localhost, DNS:*.localhost
    Signature Algorithm: sha256WithRSAEncryption
         ad:4b:39:8b:27:fa:6f:ea:8f:11:2d:28:bd:eb:e8:28:f0:f2:
         28:d4:45:0e:af:99:60:9b:74:b2:31:26:6f:62:68:30:62:3b:
         b2:e1:3e:d5:c6:44:81:d9:6c:7c:25:b0:e5:b5:7d:03:bd:ce:
         ae:05:1e:9a:a5:7c:86:6e:7b:80:17:ef:c1:8a:ac:04:d5:be:
         3c:f9:55:c8:2f:0a:3f:87:04:94:3e:ba:e3:6d:c5:92:e3:a5:
         d8:34:c1:c2:47:58:c1:65:d6:5a:0d:5f:95:e2:37:79:d8:7c:
         44:a3:ed:71:d4:4f:ea:ba:d7:1f:10:1b:05:2b:cf:4a:f1:0e:
         51:fe:a8:75:5c:2b:d5:e8:63:5f:2a:67:67:8b:ac:4b:f8:93:
         19:3c:af:b7:76:eb:ac:67:53:3f:47:3b:69:3b:b7:b2:85:b3:
         0f:c4:a2:70:11:81:c7:40:3d:1e:b9:85:c7:62:d5:ca:9b:40:
         4b:37:96:76:61:c9:ac:3a:c8:09:d9:0f:62:be:42:46:34:1f:
         00:6b:5a:83:0a:0f:19:c5:31:fc:f6:df:a4:71:fd:d8:91:2b:
         31:a4:ac:6e:d0:9a:56:9f:7c:e0:37:82:2f:c7:a2:87:45:66:
         f9:df:6d:a7:c4:ee:e1:78:06:0b:fe:82:df:d5:02:7e:a2:e3:
         f9:3a:26:06
-----BEGIN CERTIFICATE-----
MIIDaTCCAlGgAwIBAgIBATANBgkqhkiG9w0BAQsFADASMRAwDgYDVQQDDAdkZXZj
ZXJ0MB4XDTIwMDQyNzE0MTkxM1oXDTIyMDczMTE0MTkxM1owFDESMBAGA1UEAwwJ
bG9jYWxob3N0MIIBIjANBgkqhkiG9w0BAQEFAAOCAQ8AMIIBCgKCAQEAs+lCXspb
tF7xFmnqUF8q4JAcxv9f0qQyJdFiGsaw4R72/CLn2RLYLeZJkPPdumG4vq4/zTaX
ZuMte89QIUuHLul8ZpbSKoCbDDeLwRQmESKWotlnBqxEhmUxxwd6wYFw1Wv6ywp1
hy5mSvxRhznjTL188WZSVPxomdTyWUgULBo0zdqTe+I20hRFUXCtLaLwYmiBWJHO
jNH8gwV0Y306yyJiFLyTUG2a7ADlA7ToOapvuBpI/DssRXPcQIlx0F5nBU8NkAkx
+ou12rt+LH4W3jZlVcIp4rv3P4Qkb6mass7htxUp3h9wWyKodGsI3E/5izvymy8N
Y0YmjN+6f3Z/AQIDAQABo4HHMIHEMAwGA1UdEwEB/wQCMAAwHQYDVR0OBBYEFJ5X
gIWpaoELtY7lbql9U/N6fH+RME0GA1UdIwRGMESAFILzMYScroJn3G9CWhDdVOcP
CQJRoRakFDASMRAwDgYDVQQDDAdkZXZjZXJ0ghQXq8LIoPLCsRvz/oM8Ehb3ulJj
GTAOBgNVHQ8BAf8EBAMCBaAwEwYDVR0lBAwwCgYIKwYBBQUHAwEwIQYDVR0RBBow
GIIJbG9jYWxob3N0ggsqLmxvY2FsaG9zdDANBgkqhkiG9w0BAQsFAAOCAQEArUs5
iyf6b+qPES0ovevoKPDyKNRFDq+ZYJt0sjEmb2JoMGI7suE+1cZEgdlsfCWw5bV9
A73OrgUemqV8hm57gBfvwYqsBNW+PPlVyC8KP4cElD66423FkuOl2DTBwkdYwWXW
Wg1fleI3edh8RKPtcdRP6rrXHxAbBSvPSvEOUf6odVwr1ehjXypnZ4usS/iTGTyv
t3brrGdTP0c7aTu3soWzD8SicBGBx0A9HrmFx2LVyptASzeWdmHJrDrICdkPYr5C
RjQfAGtagwoPGcUx/PbfpHH92JErMaSsbtCaVp984DeCL8eih0Vm+d9tp8Tu4XgG
C/6C39UCfqLj+TomBg==
-----END CERTIFICATE-----
